(lp0
(lp1
I90
aI8
aI2
aI0
aI0
aI0
aI0
aI0
aI0
aI0
aa(lp2
I73
aI8
aI9
aI10
aI0
aI0
aI0
aI0
aI0
aI0
aa(lp3
I0
aI8
aI2
aI0
aI0
aI0
aI0
aI90
aI0
aI0
aag2
a(lp4
I73
aI8
aI0
aI10
aI0
aI0
aI0
aI9
aI0
aI0
aa(lp5
I73
aI19
aI2
aI0
aI2
aI0
aI1
aI0
aI3
aI0
aa(lp6
I0
aI19
aI2
aI73
aI2
aI0
aI3
aI0
aI1
aI0
aag1
a(lp7
I0
aI9
aI19
aI0
aI0
aI72
aI0
aI0
aI0
aI0
aag6
a(lp8
I0
aI12
aI2
aI73
aI2
aI0
aI10
aI0
aI1
aI0
aag1
a(lp9
I90
aI8
aI0
aI0
aI0
aI0
aI2
aI0
aI0
aI0
aag2
a(lp10
I68
aI8
aI9
aI15
aI0
aI0
aI0
aI0
aI0
aI0
aag5
a(lp11
I73
aI19
aI2
aI2
aI0
aI0
aI1
aI0
aI3
aI0
aa(lp12
I0
aI8
aI19
aI0
aI0
aI73
aI0
aI0
aI0
aI0
aa(lp13
I0
aI8
aI19
aI0
aI0
aI11
aI0
aI0
aI0
aI62
aag6
a(lp14
I0
aI19
aI1
aI74
aI2
aI0
aI3
aI0
aI1
aI0
aag1
a(lp15
I90
aI8
aI2
aI0
aI0
aI0
aI0
aI0
aI0
aI0
aag2
a(lp16
I73
aI8
aI9
aI10
aI0
aI0
aI0
aI0
aI0
aI0
aag5
a(lp17
I73
aI19
aI0
aI0
aI2
aI0
aI1
aI2
aI3
aI0
aag12
a(lp18
I0
aI8
aI19
aI0
aI0
aI73
aI0
aI0
aI0
aI0
aag6
a(lp19
I0
aI19
aI2
aI45
aI2
aI0
aI3
aI0
aI29
aI0
aag1
a(lp20
I90
aI8
aI2
aI0
aI0
aI0
aI0
aI0
aI0
aI0
aag2
a(lp21
I73
aI9
aI8
aI10
aI0
aI0
aI0
aI0
aI0
aI0
aag5
a(lp22
I73
aI2
aI19
aI0
aI2
aI0
aI1
aI0
aI3
aI0
aa(lp23
I73
aI19
aI2
aI0
aI1
aI0
aI2
aI0
aI3
aI0
aa(lp24
I0
aI8
aI19
aI0
aI0
aI73
aI0
aI0
aI0
aI0
aag6
a(lp25
I0
aI5
aI16
aI73
aI2
aI0
aI3
aI0
aI1
aI0
aag1
a(lp26
I90
aI8
aI2
aI0
aI0
aI0
aI0
aI0
aI0
aI0
aag12
a(lp27
I9
aI8
aI73
aI10
aI0
aI0
aI0
aI0
aI0
aI0
aag5
a(lp28
I73
aI19
aI2
aI0
aI2
aI0
aI1
aI0
aI3
aI0
aag12
a(lp29
I0
aI8
aI19
aI0
aI0
aI73
aI0
aI0
aI0
aI0
aag6
a(lp30
I0
aI19
aI0
aI73
aI2
aI0
aI3
aI0
aI1
aI2
aag1
a(lp31
I90
aI8
aI2
aI0
aI0
aI0
aI0
aI0
aI0
aI0
aag2
a(lp32
I73
aI8
aI9
aI10
aI0
aI0
aI0
aI0
aI0
aI0
aag5
a(lp33
I73
aI19
aI2
aI0
aI2
aI0
aI1
aI0
aI3
aI0
aag12
a(lp34
I0
aI8
aI19
aI0
aI0
aI73
aI0
aI0
aI0
aI0
aag6
a(lp35
I0
aI19
aI2
aI73
aI2
aI0
aI3
aI0
aI1
aI0
aag1
a(lp36
I90
aI8
aI0
aI0
aI0
aI2
aI0
aI0
aI0
aI0
aag2
a(lp37
I73
aI8
aI9
aI10
aI0
aI0
aI0
aI0
aI0
aI0
aag5
a(lp38
I73
aI20
aI2
aI0
aI2
aI0
aI0
aI0
aI3
aI0
aag12
a(lp39
I0
aI8
aI19
aI0
aI0
aI73
aI0
aI0
aI0
aI0
aag6
a(lp40
I0
aI19
aI2
aI73
aI2
aI0
aI3
aI0
aI1
aI0
aag1
a(lp41
I90
aI8
aI2
aI0
aI0
aI0
aI0
aI0
aI0
aI0
aag2
a(lp42
I73
aI8
aI9
aI10
aI0
aI0
aI0
aI0
aI0
aI0
aag5
a(lp43
I73
aI19
aI2
aI0
aI2
aI0
aI1
aI0
aI3
aI0
aag12
a(lp44
I0
aI8
aI19
aI0
aI0
aI73
aI0
aI0
aI0
aI0
aag6
a(lp45
I0
aI19
aI2
aI0
aI2
aI0
aI3
aI0
aI1
aI73
aag1
a(lp46
I90
aI8
aI2
aI0
aI0
aI0
aI0
aI0
aI0
aI0
aag2
a(lp47
I0
aI8
aI9
aI10
aI0
aI0
aI0
aI73
aI0
aI0
aag5
a(lp48
I73
aI19
aI2
aI0
aI2
aI0
aI1
aI0
aI3
aI0
aag12
a(lp49
I0
aI8
aI19
aI0
aI0
aI73
aI0
aI0
aI0
aI0
aag6
a(lp50
I0
aI19
aI2
aI3
aI2
aI0
aI73
aI0
aI1
aI0
aag1
a(lp51
I90
aI8
aI2
aI0
aI0
aI0
aI0
aI0
aI0
aI0
aag2
a(lp52
I73
aI8
aI9
aI0
aI0
aI0
aI10
aI0
aI0
aI0
aag5
a(lp53
I73
aI19
aI2
aI0
aI2
aI0
aI1
aI0
aI3
aI0
aag12
ag12
ag6
a(lp54
I0
aI19
aI2
aI73
aI2
aI0
aI3
aI0
aI1
aI0
aag5
ag12
ag2
a(lp55
I0
aI8
aI19
aI0
aI0
aI73
aI0
aI0
aI0
aI0
aa.