(lp0
(lp1
(lp2
I43
aa(lp3
I0
aI9
aI19
aI0
aI0
aI72
aI0
aI0
aI0
aI0
aaa(lp4
(lp5
F94.5
aa(lp6
I0
aI19
aI2
aI73
aI2
aI0
aI3
aI0
aI1
aI0
aaa(lp7
(lp8
F8.5
aa(lp9
I90
aI8
aI2
aI0
aI0
aI0
aI0
aI0
aI0
aI0
aaa(lp10
(lp11
F27.0
aa(lp12
I73
aI8
aI9
aI10
aI0
aI0
aI0
aI0
aI0
aI0
aaa(lp13
(lp14
F53.5
aa(lp15
I0
aI8
aI2
aI0
aI0
aI0
aI0
aI90
aI0
aI0
aaa(lp16
(lp17
F27.0
aag12
aa(lp18
(lp19
I63
aa(lp20
I73
aI8
aI0
aI10
aI0
aI0
aI0
aI9
aI0
aI0
aaa(lp21
(lp22
F80.0
aa(lp23
I73
aI19
aI2
aI0
aI2
aI0
aI1
aI0
aI3
aI0
aaa(lp24
(lp25
F94.5
aag6
aa(lp26
(lp27
F8.5
aag9
aa(lp28
(lp29
F52.0
aa(lp30
I0
aI8
aI19
aI0
aI0
aI73
aI0
aI0
aI0
aI0
aaa(lp31
(lp32
F94.5
aag6
aa(lp33
(lp34
F108.5
aa(lp35
I0
aI19
aI2
aI45
aI2
aI0
aI3
aI0
aI29
aI0
aaa(lp36
(lp37
F8.5
aag9
aa(lp38
(lp39
F8.5
aa(lp40
I90
aI8
aI2
aI0
aI0
aI0
aI0
aI0
aI0
aI0
aaa(lp41
(lp42
F27.0
aag12
aa(lp43
(lp44
F20.0
aa(lp45
I73
aI9
aI8
aI10
aI0
aI0
aI0
aI0
aI0
aI0
aaa(lp46
(lp47
F80.0
aag23
aa(lp48
(lp49
F96.0
aa(lp50
I73
aI2
aI19
aI0
aI2
aI0
aI1
aI0
aI3
aI0
aaa(lp51
(lp52
I88
aa(lp53
I73
aI19
aI2
aI0
aI1
aI0
aI2
aI0
aI3
aI0
aaa(lp54
(lp55
F8.5
aag9
aa(lp56
(lp57
F111.5
aa(lp58
I0
aI19
aI2
aI0
aI2
aI0
aI3
aI0
aI1
aI73
aaa(lp59
(lp60
F27.0
aag12
aa(lp61
(lp62
F8.5
aa(lp63
I90
aI8
aI2
aI0
aI0
aI0
aI0
aI0
aI0
aI0
aaa(lp64
(lp65
F80.0
aag23
aa(lp66
(lp67
I64
aa(lp68
I0
aI8
aI9
aI10
aI0
aI0
aI0
aI73
aI0
aI0
aaa(lp69
(lp70
F80.0
aa(lp71
I73
aI19
aI2
aI0
aI2
aI0
aI1
aI0
aI3
aI0
aaa(lp72
(lp73
F94.5
aag6
aa(lp74
(lp75
F52.0
aa(lp76
I0
aI8
aI19
aI0
aI0
aI73
aI0
aI0
aI0
aI0
aaa(lp77
(lp78
F80.0
aag23
aa(lp79
(lp80
F44.5
aa(lp81
I9
aI8
aI73
aI10
aI0
aI0
aI0
aI0
aI0
aI0
aaa(lp82
(lp83
F52.0
aa(lp84
I0
aI8
aI19
aI0
aI0
aI73
aI0
aI0
aI0
aI0
aaa(lp85
(lp86
F80.0
aa(lp87
I73
aI19
aI2
aI0
aI2
aI0
aI1
aI0
aI3
aI0
aaa(lp88
(lp89
F8.5
aag9
aa(lp90
(lp91
F103.0
aa(lp92
I0
aI5
aI16
aI73
aI2
aI0
aI3
aI0
aI1
aI0
aaa(lp93
(lp94
F52.0
aag84
aa(lp95
(lp96
F8.5
aa(lp97
I90
aI8
aI2
aI0
aI0
aI0
aI0
aI0
aI0
aI0
aaa(lp98
(lp99
F80.0
aag23
aa(lp100
(lp101
F94.5
aa(lp102
I0
aI19
aI2
aI73
aI2
aI0
aI3
aI0
aI1
aI0
aaa(lp103
(lp104
F52.0
aa(lp105
I0
aI8
aI19
aI0
aI0
aI73
aI0
aI0
aI0
aI0
aaa(lp106
(lp107
F52.0
aa(lp108
I0
aI8
aI19
aI0
aI0
aI73
aI0
aI0
aI0
aI0
aaa(lp109
(lp110
F94.5
aag6
aa(lp111
(lp112
F80.0
aa(lp113
I73
aI19
aI2
aI0
aI2
aI0
aI1
aI0
aI3
aI0
aaa(lp114
(lp115
F52.0
aag84
aa(lp116
(lp117
F27.0
aa(lp118
I73
aI8
aI9
aI10
aI0
aI0
aI0
aI0
aI0
aI0
aaa(lp119
(lp120
F80.0
aag23
aa(lp121
(lp122
F8.5
aa(lp123
I90
aI8
aI2
aI0
aI0
aI0
aI0
aI0
aI0
aI0
aaa(lp124
(lp125
F27.0
aag12
aa(lp126
(lp127
I110
aa(lp128
I0
aI19
aI0
aI73
aI2
aI0
aI3
aI0
aI1
aI2
aaa(lp129
(lp130
F8.5
aag9
aa(lp131
(lp132
F52.0
aag84
aa(lp133
(lp134
F94.5
aag6
aa(lp135
(lp136
F52.0
aa(lp137
I0
aI8
aI19
aI0
aI0
aI73
aI0
aI0
aI0
aI0
aaa(lp138
(lp139
F27.0
aag12
aa(lp140
(lp141
F27.0
aa(lp142
I90
aI8
aI0
aI0
aI0
aI2
aI0
aI0
aI0
aI0
aaa(lp143
(lp144
F8.5
aag9
aa(lp145
(lp146
F94.5
aa(lp147
I0
aI19
aI2
aI73
aI2
aI0
aI3
aI0
aI1
aI0
aaa(lp148
(lp149
F52.0
aag84
aa(lp150
(lp151
F77.0
aa(lp152
I73
aI20
aI2
aI0
aI2
aI0
aI0
aI0
aI3
aI0
aaa(lp153
(lp154
F80.0
aag23
aa(lp155
(lp156
F27.0
aa(lp157
I73
aI8
aI9
aI10
aI0
aI0
aI0
aI0
aI0
aI0
aaa(lp158
(lp159
F94.5
aag6
aa(lp160
(lp161
F52.0
aa(lp162
I0
aI8
aI19
aI0
aI0
aI73
aI0
aI0
aI0
aI0
aaa(lp163
(lp164
F52.0
aag84
aa(lp165
(lp166
F27.0
aa(lp167
I73
aI8
aI9
aI10
aI0
aI0
aI0
aI0
aI0
aI0
aaa(lp168
(lp169
F80.0
aag23
aa(lp170
(lp171
F80.0
aa(lp172
I73
aI19
aI2
aI0
aI2
aI0
aI1
aI0
aI3
aI0
aaa(lp173
(lp174
F52.0
aag84
aa(lp175
(lp176
F94.5
aa(lp177
I0
aI19
aI2
aI73
aI2
aI0
aI3
aI0
aI1
aI0
aaa(lp178
(lp179
F8.5
aag9
aa(lp180
(lp181
F8.5
aa(lp182
I90
aI8
aI2
aI0
aI0
aI0
aI0
aI0
aI0
aI0
aaa(lp183
(lp184
F27.0
aag12
aa(lp185
(lp186
F52.0
aa(lp187
I0
aI8
aI19
aI0
aI0
aI73
aI0
aI0
aI0
aI0
aaa(lp188
(lp189
F94.5
aag6
aa(lp190
(lp191
F8.5
aa(lp192
I90
aI8
aI2
aI0
aI0
aI0
aI0
aI0
aI0
aI0
aaa(lp193
(lp194
F27.0
aag12
aa(lp195
(lp196
F80.0
aa(lp197
I73
aI19
aI2
aI0
aI2
aI0
aI1
aI0
aI3
aI0
aaa(lp198
(lp199
F52.0
aag84
aa(lp200
(lp201
F41.5
aa(lp202
I73
aI8
aI9
aI0
aI0
aI0
aI10
aI0
aI0
aI0
aaa(lp203
(lp204
F80.0
aag23
aa(lp205
(lp206
F27.0
aag12
aa(lp207
(lp208
F52.0
aag84
aa(lp209
(lp210
F94.5
aag6
aa(lp211
(lp212
F37.5
aa(lp213
I90
aI8
aI0
aI0
aI0
aI0
aI2
aI0
aI0
aI0
aaa(lp214
(lp215
F27.0
aag12
aa(lp216
(lp217
F96.5
aa(lp218
I0
aI12
aI2
aI73
aI2
aI0
aI10
aI0
aI1
aI0
aaa(lp219
(lp220
F8.5
aag9
aa(lp221
(lp222
I69
aa(lp223
I73
aI19
aI2
aI2
aI0
aI0
aI1
aI0
aI3
aI0
aaa(lp224
(lp225
F52.0
aag84
aa(lp226
(lp227
F36.0
aa(lp228
I68
aI8
aI9
aI15
aI0
aI0
aI0
aI0
aI0
aI0
aaa(lp229
(lp230
F80.0
aag23
aa(lp231
(lp232
I71
aa(lp233
I0
aI8
aI19
aI0
aI0
aI11
aI0
aI0
aI0
aI62
aaa(lp234
(lp235
F94.5
aag6
aa(lp236
(lp237
F105.5
aa(lp238
I0
aI19
aI2
aI3
aI2
aI0
aI73
aI0
aI1
aI0
aaa(lp239
(lp240
F8.5
aag9
aa(lp241
(lp242
F94.5
aag6
aa(lp243
(lp244
F52.0
aa(lp245
I0
aI8
aI19
aI0
aI0
aI73
aI0
aI0
aI0
aI0
aaa(lp246
(lp247
F52.0
aag84
aa(lp248
(lp249
I107
aa(lp250
I73
aI19
aI0
aI0
aI2
aI0
aI1
aI2
aI3
aI0
aaa(lp251
(lp252
F80.0
aag23
aa(lp253
(lp254
F27.0
aa(lp255
I73
aI8
aI9
aI10
aI0
aI0
aI0
aI0
aI0
aI0
aaa(lp256
(lp257
F27.0
aag12
aa(lp258
(lp259
F8.5
aa(lp260
I90
aI8
aI2
aI0
aI0
aI0
aI0
aI0
aI0
aI0
aaa(lp261
(lp262
F8.5
aag9
aa(lp263
(lp264
F86.5
aa(lp265
I0
aI19
aI1
aI74
aI2
aI0
aI3
aI0
aI1
aI0
aaa.